target datalayout = "e-m:e-p270:32:32-p271:32:32-p272:64:64-i64:64-i128:128-f80:128-n8:16:32:64-S128"
target triple = "x86_64-unknown-linux-gnu"

%struct.MachineClass = type { %struct.ObjectClass, ptr, ptr, ptr, ptr, ptr, ptr, ptr, ptr, ptr, i32, i32, i32, i32, i32, i8, i8, ptr, ptr, ptr, ptr, ptr, ptr, i64, ptr, i8, i8, i8, i32, i8, i8, i32, ptr, ptr, i8, i8, i8, i8, i8, i8, i8, i8, %struct.SMPCompatProps, ptr, ptr, ptr, ptr, ptr, ptr, ptr }
%struct.ObjectClass = type { ptr, ptr, [4 x ptr], [4 x ptr], ptr, ptr }
%struct.SMPCompatProps = type { i8, i8, i8, i8, i8, i8 }
%struct.MachineState = type { %struct.Object, ptr, ptr, ptr, i32, ptr, i8, i8, i8, i8, ptr, i8, i8, i8, ptr, ptr, ptr, ptr, ptr, i64, i64, i64, %struct.BootConfiguration, ptr, ptr, ptr, ptr, ptr, ptr, %struct.CpuTopology, ptr, ptr }
%struct.Object = type { ptr, ptr, ptr, i32, ptr }
%struct.BootConfiguration = type { ptr, ptr, i8, i8, ptr, i8, i64, i8, i64, i8, i8 }
%struct.CpuTopology = type { i32, i32, i32, i32, i32, i32, i32, i32, i32 }
%struct.CPUArchIdList = type { i32, [0 x %struct.CPUArchId] }
%struct.CPUArchId = type { i64, i64, %struct.CpuInstanceProperties, ptr, ptr }
%struct.CpuInstanceProperties = type { i8, i64, i8, i64, i8, i64, i8, i64, i8, i64, i8, i64, i8, i64, i8, i64 }
%struct.HotpluggableCPU = type { ptr, i64, ptr, ptr }
%struct.HotpluggableCPUList = type { ptr, ptr }

@.str.225 = private unnamed_addr constant [8 x i8] c"machine\00", align 1
@.str.226 = private unnamed_addr constant [98 x i8] c"/home/dtcxzyw/WorkSpace/Projects/compilers/llvm-opt-benchmark/bench/qemu/qemu/include/hw/boards.h\00", align 1
@__func__.MACHINE_GET_CLASS = private unnamed_addr constant [18 x i8] c"MACHINE_GET_CLASS\00", align 1

; Function Attrs: nounwind sspstrong uwtable
define internal ptr @MACHINE_GET_CLASS(ptr noundef %obj) #0 {
entry:
  %obj.addr = alloca ptr, align 8
  store ptr %obj, ptr %obj.addr, align 8
  %0 = load ptr, ptr %obj.addr, align 8
  %call = call ptr @object_get_class(ptr noundef %0)
  %call1 = call ptr @object_class_dynamic_cast_assert(ptr noundef %call, ptr noundef @.str.225, ptr noundef @.str.226, i32 noundef 23, ptr noundef @__func__.MACHINE_GET_CLASS)
  ret ptr %call1
}

; Function Attrs: nounwind sspstrong uwtable
define dso_local ptr @machine_query_hotpluggable_cpus(ptr noundef %machine) #0 {
entry:
  %machine.addr = alloca ptr, align 8
  %i = alloca i32, align 4
  %head = alloca ptr, align 8
  %mc = alloca ptr, align 8
  %cpu = alloca ptr, align 8
  %cpu_item = alloca ptr, align 8
  %_tmp = alloca ptr, align 8
  store ptr %machine, ptr %machine.addr, align 8
  store ptr null, ptr %head, align 8
  %0 = load ptr, ptr %machine.addr, align 8
  %call = call ptr @MACHINE_GET_CLASS(ptr noundef %0)
  store ptr %call, ptr %mc, align 8
  %1 = load ptr, ptr %mc, align 8
  %possible_cpu_arch_ids = getelementptr inbounds %struct.MachineClass, ptr %1, i32 0, i32 47
  %2 = load ptr, ptr %possible_cpu_arch_ids, align 8
  %3 = load ptr, ptr %machine.addr, align 8
  %call1 = call ptr %2(ptr noundef %3)
  store i32 0, ptr %i, align 4
  br label %for.cond

for.cond:                                         ; preds = %for.inc, %entry
  %4 = load i32, ptr %i, align 4
  %5 = load ptr, ptr %machine.addr, align 8
  %possible_cpus = getelementptr inbounds %struct.MachineState, ptr %5, i32 0, i32 28
  %6 = load ptr, ptr %possible_cpus, align 8
  %len = getelementptr inbounds %struct.CPUArchIdList, ptr %6, i32 0, i32 0
  %7 = load i32, ptr %len, align 8
  %cmp = icmp slt i32 %4, %7
  br i1 %cmp, label %for.body, label %for.end

for.body:                                         ; preds = %for.cond
  %call2 = call noalias ptr @g_malloc0_n(i64 noundef 1, i64 noundef 32) #11
  store ptr %call2, ptr %cpu_item, align 8
  %8 = load ptr, ptr %machine.addr, align 8
  %possible_cpus3 = getelementptr inbounds %struct.MachineState, ptr %8, i32 0, i32 28
  %9 = load ptr, ptr %possible_cpus3, align 8
  %cpus = getelementptr inbounds %struct.CPUArchIdList, ptr %9, i32 0, i32 1
  %10 = load i32, ptr %i, align 4
  %idxprom = sext i32 %10 to i64
  %arrayidx = getelementptr [0 x %struct.CPUArchId], ptr %cpus, i64 0, i64 %idxprom
  %type = getelementptr inbounds %struct.CPUArchId, ptr %arrayidx, i32 0, i32 4
  %11 = load ptr, ptr %type, align 8
  %call4 = call noalias ptr @g_strdup(ptr noundef %11)
  %12 = load ptr, ptr %cpu_item, align 8
  %type5 = getelementptr inbounds %struct.HotpluggableCPU, ptr %12, i32 0, i32 0
  store ptr %call4, ptr %type5, align 8
  %13 = load ptr, ptr %machine.addr, align 8
  %possible_cpus6 = getelementptr inbounds %struct.MachineState, ptr %13, i32 0, i32 28
  %14 = load ptr, ptr %possible_cpus6, align 8
  %cpus7 = getelementptr inbounds %struct.CPUArchIdList, ptr %14, i32 0, i32 1
  %15 = load i32, ptr %i, align 4
  %idxprom8 = sext i32 %15 to i64
  %arrayidx9 = getelementptr [0 x %struct.CPUArchId], ptr %cpus7, i64 0, i64 %idxprom8
  %vcpus_count = getelementptr inbounds %struct.CPUArchId, ptr %arrayidx9, i32 0, i32 1
  %16 = load i64, ptr %vcpus_count, align 8
  %17 = load ptr, ptr %cpu_item, align 8
  %vcpus_count10 = getelementptr inbounds %struct.HotpluggableCPU, ptr %17, i32 0, i32 1
  store i64 %16, ptr %vcpus_count10, align 8
  %18 = load ptr, ptr %machine.addr, align 8
  %possible_cpus11 = getelementptr inbounds %struct.MachineState, ptr %18, i32 0, i32 28
  %19 = load ptr, ptr %possible_cpus11, align 8
  %cpus12 = getelementptr inbounds %struct.CPUArchIdList, ptr %19, i32 0, i32 1
  %20 = load i32, ptr %i, align 4
  %idxprom13 = sext i32 %20 to i64
  %arrayidx14 = getelementptr [0 x %struct.CPUArchId], ptr %cpus12, i64 0, i64 %idxprom13
  %props = getelementptr inbounds %struct.CPUArchId, ptr %arrayidx14, i32 0, i32 2
  %call15 = call ptr @g_memdup(ptr noundef %props, i32 noundef 128) #12
  %21 = load ptr, ptr %cpu_item, align 8
  %props16 = getelementptr inbounds %struct.HotpluggableCPU, ptr %21, i32 0, i32 2
  store ptr %call15, ptr %props16, align 8
  %22 = load ptr, ptr %machine.addr, align 8
  %possible_cpus17 = getelementptr inbounds %struct.MachineState, ptr %22, i32 0, i32 28
  %23 = load ptr, ptr %possible_cpus17, align 8
  %cpus18 = getelementptr inbounds %struct.CPUArchIdList, ptr %23, i32 0, i32 1
  %24 = load i32, ptr %i, align 4
  %idxprom19 = sext i32 %24 to i64
  %arrayidx20 = getelementptr [0 x %struct.CPUArchId], ptr %cpus18, i64 0, i64 %idxprom19
  %cpu21 = getelementptr inbounds %struct.CPUArchId, ptr %arrayidx20, i32 0, i32 3
  %25 = load ptr, ptr %cpu21, align 8
  store ptr %25, ptr %cpu, align 8
  %26 = load ptr, ptr %cpu, align 8
  %tobool = icmp ne ptr %26, null
  br i1 %tobool, label %if.then, label %if.end

if.then:                                          ; preds = %for.body
  %27 = load ptr, ptr %cpu, align 8
  %call22 = call ptr @object_get_canonical_path(ptr noundef %27)
  %28 = load ptr, ptr %cpu_item, align 8
  %qom_path = getelementptr inbounds %struct.HotpluggableCPU, ptr %28, i32 0, i32 3
  store ptr %call22, ptr %qom_path, align 8
  br label %if.end

if.end:                                           ; preds = %if.then, %for.body
  br label %do.body

do.body:                                          ; preds = %if.end
  %call23 = call noalias ptr @g_malloc(i64 noundef 16) #10
  store ptr %call23, ptr %_tmp, align 8
  %29 = load ptr, ptr %cpu_item, align 8
  %30 = load ptr, ptr %_tmp, align 8
  %value = getelementptr inbounds %struct.HotpluggableCPUList, ptr %30, i32 0, i32 1
  store ptr %29, ptr %value, align 8
  %31 = load ptr, ptr %head, align 8
  %32 = load ptr, ptr %_tmp, align 8
  %next = getelementptr inbounds %struct.HotpluggableCPUList, ptr %32, i32 0, i32 0
  store ptr %31, ptr %next, align 8
  %33 = load ptr, ptr %_tmp, align 8
  store ptr %33, ptr %head, align 8
  br label %do.end

do.end:                                           ; preds = %do.body
  br label %for.inc

for.inc:                                          ; preds = %do.end
  %34 = load i32, ptr %i, align 4
  %inc = add i32 %34, 1
  store i32 %inc, ptr %i, align 4
  br label %for.cond, !llvm.loop !7

for.end:                                          ; preds = %for.cond
  %35 = load ptr, ptr %head, align 8
  ret ptr %35
}