; Function Attrs: nounwind sspstrong uwtable
define dso_local noundef ptr @machine_query_hotpluggable_cpus(ptr noundef %machine) local_unnamed_addr #0 {
entry:
  %call.i = tail call ptr @object_get_class(ptr noundef %machine) #16
  %call1.i = tail call ptr @object_class_dynamic_cast_assert(ptr noundef %call.i, ptr noundef nonnull @.str.225, ptr noundef nonnull @.str.226, i32 noundef 23, ptr noundef nonnull @__func__.MACHINE_GET_CLASS) #16
  %possible_cpu_arch_ids = getelementptr inbounds nuw i8, ptr %call1.i, i64 336
  %0 = load ptr, ptr %possible_cpu_arch_ids, align 8
  %call1 = tail call ptr %0(ptr noundef %machine) #16
  %possible_cpus = getelementptr inbounds nuw i8, ptr %machine, i64 280
  %1 = load ptr, ptr %possible_cpus, align 8
  %2 = load i32, ptr %1, align 8
  %cmp20 = icmp sgt i32 %2, 0
  br i1 %cmp20, label %for.body, label %for.end

for.body:                                         ; preds = %entry, %do.body
  %indvars.iv = phi i64 [ %indvars.iv.next, %do.body ], [ 0, %entry ]
  %head.021 = phi ptr [ %call23, %do.body ], [ null, %entry ]
  %call2 = tail call noalias dereferenceable_or_null(32) ptr @g_malloc0_n(i64 noundef 1, i64 noundef 32) #17
  %3 = load ptr, ptr %possible_cpus, align 8
  %type.idx = mul nuw nsw i64 %indvars.iv, 160
  %4 = getelementptr i8, ptr %3, i64 160
  %type = getelementptr i8, ptr %4, i64 %type.idx
  %5 = load ptr, ptr %type, align 8
  %call4 = tail call noalias ptr @g_strdup(ptr noundef %5) #16
  store ptr %call4, ptr %call2, align 8
  %6 = load ptr, ptr %possible_cpus, align 8
  %7 = getelementptr i8, ptr %6, i64 16
  %vcpus_count = getelementptr i8, ptr %7, i64 %type.idx
  %8 = load i64, ptr %vcpus_count, align 8
  %vcpus_count10 = getelementptr inbounds nuw i8, ptr %call2, i64 8
  store i64 %8, ptr %vcpus_count10, align 8
  %9 = getelementptr i8, ptr %6, i64 24
  %props = getelementptr i8, ptr %9, i64 %type.idx
  %call15 = tail call dereferenceable_or_null(128) ptr @g_memdup(ptr noundef %props, i32 noundef 128) #18
  %props16 = getelementptr inbounds nuw i8, ptr %call2, i64 16
  store ptr %call15, ptr %props16, align 8
  %10 = load ptr, ptr %possible_cpus, align 8
  %11 = getelementptr i8, ptr %10, i64 152
  %cpu21 = getelementptr i8, ptr %11, i64 %type.idx
  %12 = load ptr, ptr %cpu21, align 8
  %tobool.not = icmp eq ptr %12, null
  br i1 %tobool.not, label %do.body, label %if.then

if.then:                                          ; preds = %for.body
  %call22 = tail call ptr @object_get_canonical_path(ptr noundef nonnull %12) #16
  %qom_path = getelementptr inbounds nuw i8, ptr %call2, i64 24
  store ptr %call22, ptr %qom_path, align 8
  br label %do.body

do.body:                                          ; preds = %for.body, %if.then
  %call23 = tail call noalias dereferenceable_or_null(16) ptr @g_malloc(i64 noundef 16) #15
  %value = getelementptr inbounds nuw i8, ptr %call23, i64 8
  store ptr %call2, ptr %value, align 8
  store ptr %head.021, ptr %call23, align 8
  %indvars.iv.next = add nuw nsw i64 %indvars.iv, 1
  %13 = load ptr, ptr %possible_cpus, align 8
  %14 = load i32, ptr %13, align 8
  %15 = sext i32 %14 to i64
  %cmp = icmp slt i64 %indvars.iv.next, %15
  br i1 %cmp, label %for.body, label %for.end, !llvm.loop !7

for.end:                                          ; preds = %do.body, %entry
  %head.0.lcssa = phi ptr [ null, %entry ], [ %call23, %do.body ]
  ret ptr %head.0.lcssa
}